; Function Attrs: mustprogress uwtable
define hidden noundef zeroext i1 @_ZN4cvc58internal19SygusTermEnumerator9incrementEv(ptr noundef nonnull readonly align 8 captures(none) dereferenceable(16) %0) local_unnamed_addr #3 align 2 personality ptr @__gxx_personality_v0 {
  %2 = alloca %"class.cvc5::internal::NodeTemplate", align 8
  br label %3

3:                                                ; preds = %_ZN4cvc58internal12NodeTemplateILb1EED2Ev.exit, %1
  %4 = load ptr, ptr %0, align 8, !tbaa !3
  %5 = load ptr, ptr %4, align 8, !tbaa !23
  %6 = getelementptr inbounds nuw i8, ptr %5, i64 32
  %7 = load ptr, ptr %6, align 8
  %8 = call noundef zeroext i1 %7(ptr noundef nonnull align 8 dereferenceable(344) %4)
  br i1 %8, label %9, label %40

9:                                                ; preds = %3
  call void @llvm.lifetime.start.p0(i64 8, ptr nonnull %2) #16
  %10 = load ptr, ptr %0, align 8, !tbaa !3
  %11 = load ptr, ptr %10, align 8, !tbaa !23
  %12 = getelementptr inbounds nuw i8, ptr %11, i64 40
  %13 = load ptr, ptr %12, align 8
  call void %13(ptr dead_on_unwind nonnull writable sret(%"class.cvc5::internal::NodeTemplate") align 8 %2, ptr noundef nonnull align 8 dereferenceable(344) %10)
  %14 = load ptr, ptr %2, align 8, !tbaa !11
  %15 = load atomic i8, ptr @_ZGVZN4cvc58internal4expr9NodeValue4nullEvE6s_null acquire, align 8
  %16 = icmp eq i8 %15, 0
  br i1 %16, label %17, label %24, !prof !8

17:                                               ; preds = %9
  %18 = call i32 @__cxa_guard_acquire(ptr nonnull @_ZGVZN4cvc58internal4expr9NodeValue4nullEvE6s_null) #16
  %.not.i.i = icmp eq i32 %18, 0
  br i1 %.not.i.i, label %24, label %19

19:                                               ; preds = %17
  %20 = invoke noalias noundef nonnull dereferenceable(24) ptr @_Znwm(i64 noundef 24) #15
          to label %21 unwind label %.body

21:                                               ; preds = %19
  store i64 1152920405095219200, ptr %20, align 8
  %22 = getelementptr inbounds nuw i8, ptr %20, i64 8
  call void @llvm.memset.p0.i64(ptr noundef nonnull align 8 dereferenceable(16) %22, i8 0, i64 16, i1 false)
  store ptr %20, ptr @_ZZN4cvc58internal4expr9NodeValue4nullEvE6s_null, align 8, !tbaa !9
  call void @__cxa_guard_release(ptr nonnull @_ZGVZN4cvc58internal4expr9NodeValue4nullEvE6s_null) #16
  br label %24

.body:                                            ; preds = %19
  %23 = landingpad { ptr, i32 }
          cleanup
  call void @__cxa_guard_abort(ptr nonnull @_ZGVZN4cvc58internal4expr9NodeValue4nullEvE6s_null) #16
  call void @_ZN4cvc58internal12NodeTemplateILb1EED2Ev(ptr noundef nonnull align 8 dereferenceable(8) %2) #16
  call void @llvm.lifetime.end.p0(i64 8, ptr nonnull %2) #16
  resume { ptr, i32 } %23

24:                                               ; preds = %21, %17, %9
  %25 = load ptr, ptr @_ZZN4cvc58internal4expr9NodeValue4nullEvE6s_null, align 8, !tbaa !9
  %26 = icmp eq ptr %14, %25
  %27 = load ptr, ptr %2, align 8, !tbaa !11
  %28 = load i64, ptr %27, align 8
  %29 = and i64 %28, 1152920405095219200
  %.not.i.i3 = icmp eq i64 %29, 1152920405095219200
  br i1 %.not.i.i3, label %_ZN4cvc58internal12NodeTemplateILb1EED2Ev.exit, label %30, !prof !20

30:                                               ; preds = %24
  %31 = add i64 %28, 1152920405095219200
  %32 = and i64 %31, 1152920405095219200
  %33 = and i64 %28, -1152920405095219201
  %34 = or disjoint i64 %32, %33
  store i64 %34, ptr %27, align 8
  %35 = icmp eq i64 %32, 0
  br i1 %35, label %36, label %_ZN4cvc58internal12NodeTemplateILb1EED2Ev.exit, !prof !20

36:                                               ; preds = %30
  invoke void @_ZN4cvc58internal4expr9NodeValue15markForDeletionEv(ptr noundef nonnull align 8 dereferenceable(24) %27)
          to label %_ZN4cvc58internal12NodeTemplateILb1EED2Ev.exit unwind label %37

37:                                               ; preds = %36
  %38 = landingpad { ptr, i32 }
          catch ptr null
  %39 = extractvalue { ptr, i32 } %38, 0
  call void @__clang_call_terminate(ptr %39) #17
  unreachable

_ZN4cvc58internal12NodeTemplateILb1EED2Ev.exit:   ; preds = %24, %30, %36
  call void @llvm.lifetime.end.p0(i64 8, ptr nonnull %2) #16
  br i1 %26, label %3, label %40, !llvm.loop !60

40:                                               ; preds = %3, %_ZN4cvc58internal12NodeTemplateILb1EED2Ev.exit
  ret i1 %8
}